; Function Attrs: nofree norecurse nosync nounwind uwtable
define hidden void @_mi_snprintf(ptr noundef %0, i64 noundef %1, ptr noundef %2, ...) local_unnamed_addr #7 {
  %4 = alloca [1 x %struct.__va_list_tag], align 16
  call void @llvm.lifetime.start.p0(i64 24, ptr nonnull %4) #12
  call void @llvm.va_start.p0(ptr nonnull %4)
  call void @_mi_vsnprintf(ptr noundef %0, i64 noundef %1, ptr noundef %2, ptr noundef nonnull %4) #13
  call void @llvm.va_end.p0(ptr nonnull %4)
  call void @llvm.lifetime.end.p0(i64 24, ptr nonnull %4) #12
  ret void
}